; Function Attrs: nofree nounwind uwtable
define noundef ptr @Ga2_ManAbsTranslate(ptr noundef readonly captures(none) %0) local_unnamed_addr #11 {
Vec_IntAlloc.exit.i:
  %1 = load ptr, ptr %0, align 8
  %2 = getelementptr i8, ptr %1, i64 24
  %.val25 = load i32, ptr %2, align 8
  %3 = tail call noalias dereferenceable_or_null(16) ptr @malloc(i64 noundef 16) #27
  %4 = add i32 %.val25, -1
  %or.cond.i.i = icmp ult i32 %4, 15
  %spec.store.select.i.i = select i1 %or.cond.i.i, i32 16, i32 %.val25
  %5 = getelementptr inbounds nuw i8, ptr %3, i64 4
  store i32 %spec.store.select.i.i, ptr %3, align 8
  %.not.i.i = icmp ne i32 %spec.store.select.i.i, 0
  tail call void @llvm.assume(i1 %.not.i.i)
  %6 = sext i32 %spec.store.select.i.i to i64
  %7 = shl nsw i64 %6, 2
  %8 = tail call noalias ptr @malloc(i64 noundef %7) #27
  %9 = getelementptr inbounds nuw i8, ptr %3, i64 8
  store ptr %8, ptr %9, align 8
  store i32 %.val25, ptr %5, align 4
  %.not.i = icmp ne ptr %8, null
  tail call void @llvm.assume(i1 %.not.i)
  %10 = sext i32 %.val25 to i64
  %11 = shl nsw i64 %10, 2
  tail call void @llvm.memset.p0.i64(ptr nonnull align 4 %8, i8 0, i64 %11, i1 false)
  %12 = getelementptr i8, ptr %3, i64 8
  store i32 1, ptr %8, align 4
  %13 = getelementptr inbounds nuw i8, ptr %0, i64 40
  %14 = load ptr, ptr %13, align 8
  %15 = getelementptr i8, ptr %14, i64 4
  %.val35 = load i32, ptr %15, align 4
  %16 = icmp sgt i32 %.val35, 0
  br i1 %16, label %.lr.ph, label %.critedge

.lr.ph:                                           ; preds = %Vec_IntAlloc.exit.i, %Gia_ObjIsRo.exit.thread
  %indvars.iv = phi i64 [ %indvars.iv.next, %Gia_ObjIsRo.exit.thread ], [ 0, %Vec_IntAlloc.exit.i ]
  %17 = phi ptr [ %41, %Gia_ObjIsRo.exit.thread ], [ %14, %Vec_IntAlloc.exit.i ]
  %18 = load ptr, ptr %0, align 8
  %19 = getelementptr i8, ptr %17, i64 8
  %.val21 = load ptr, ptr %19, align 8
  %20 = getelementptr inbounds nuw i32, ptr %.val21, i64 %indvars.iv
  %21 = load i32, ptr %20, align 4
  %22 = getelementptr i8, ptr %18, i64 32
  %.val22 = load ptr, ptr %22, align 8
  %23 = sext i32 %21 to i64
  %24 = getelementptr inbounds %struct.Gia_Obj_t_, ptr %.val22, i64 %23
  %.not = icmp eq ptr %.val22, null
  br i1 %.not, label %.critedge, label %25

25:                                               ; preds = %.lr.ph
  %.val24 = load i64, ptr %24, align 4
  %26 = and i64 %.val24, 2147483648
  %.not.i30 = icmp ne i64 %26, 0
  %27 = and i64 %.val24, 536870911
  %28 = icmp eq i64 %27, 536870911
  %narrow.i.not = or i1 %.not.i30, %28
  br i1 %narrow.i.not, label %30, label %29

29:                                               ; preds = %25
  tail call void @Ga2_ManAbsTranslate_rec(ptr noundef nonnull %18, ptr noundef nonnull %24, ptr noundef nonnull %3, i32 noundef 1)
  br label %Gia_ObjIsRo.exit.thread

30:                                               ; preds = %25
  %31 = and i64 %.val24, 2684354559
  %narrow.i.not.i = icmp eq i64 %31, 2684354559
  br i1 %narrow.i.not.i, label %Gia_ObjIsRo.exit, label %Gia_ObjIsRo.exit.thread

Gia_ObjIsRo.exit:                                 ; preds = %30
  %32 = lshr i64 %.val24, 32
  %33 = trunc nuw i64 %32 to i32
  %34 = and i32 %33, 536870911
  %35 = getelementptr i8, ptr %18, i64 16
  %.val.i = load i32, ptr %35, align 8
  %36 = getelementptr i8, ptr %18, i64 64
  %.val3.i = load ptr, ptr %36, align 8
  %37 = getelementptr i8, ptr %.val3.i, i64 4
  %.val3.val.i = load i32, ptr %37, align 4
  %38 = sub nsw i32 %.val3.val.i, %.val.i
  %.not34 = icmp slt i32 %34, %38
  br i1 %.not34, label %Gia_ObjIsRo.exit.thread, label %39

39:                                               ; preds = %Gia_ObjIsRo.exit
  %.val26 = load ptr, ptr %12, align 8
  %40 = getelementptr inbounds i32, ptr %.val26, i64 %23
  store i32 1, ptr %40, align 4
  br label %Gia_ObjIsRo.exit.thread

Gia_ObjIsRo.exit.thread:                          ; preds = %Gia_ObjIsRo.exit, %30, %29, %39
  %indvars.iv.next = add nuw nsw i64 %indvars.iv, 1
  %41 = load ptr, ptr %13, align 8
  %42 = getelementptr i8, ptr %41, i64 4
  %.val = load i32, ptr %42, align 4
  %43 = sext i32 %.val to i64
  %44 = icmp slt i64 %indvars.iv.next, %43
  br i1 %44, label %.lr.ph, label %.critedge, !llvm.loop !53

.critedge:                                        ; preds = %.lr.ph, %Gia_ObjIsRo.exit.thread, %Vec_IntAlloc.exit.i
  ret ptr %3
}